target datalayout = "e-m:e-p270:32:32-p271:32:32-p272:64:64-i64:64-i128:128-f80:128-n8:16:32:64-S128"
target triple = "x86_64-pc-linux-gnu"

%"class.sat::ddfw" = type <{ %"struct.sat::ddfw::config", %class.reslimit, %class.vector.1, %class.svector.2, %class.svector.4, %class.svector.6, %class.svector.6, %class.svector.8, i32, [4 x i8], %class.vector.10, %class.svector.11, %class.svector.11, i32, i32, i32, [4 x i8], %class.indexed_uint_set, %class.indexed_uint_set, %class.random_gen, [4 x i8], i64, i32, i32, i32, i32, i64, i64, i64, i64, i64, i32, i32, %class.u_map, %class.stopwatch, %class.svector.11, i8, [7 x i8], %class.scoped_ptr, %"class.std::function", i32, [4 x i8], %class.tracked_uint_set, %class.svector.11, i8, i8, [6 x i8] }>
%"struct.sat::ddfw::config" = type { i32, i32, i32, i32, i32, i32, double }
%class.reslimit = type { %"struct.std::atomic", i8, i64, i64, %class.svector, %class.ptr_vector }
%"struct.std::atomic" = type { %"struct.std::__atomic_base" }
%"struct.std::__atomic_base" = type { i32 }
%class.svector = type { %class.vector }
%class.vector = type { ptr }
%class.ptr_vector = type { %class.vector.0 }
%class.vector.0 = type { ptr }
%class.vector.1 = type { ptr }
%class.svector.2 = type { %class.vector.3 }
%class.vector.3 = type { ptr }
%class.svector.4 = type { %class.vector.5 }
%class.vector.5 = type { ptr }
%class.svector.6 = type { %class.vector.7 }
%class.vector.7 = type { ptr }
%class.svector.8 = type { %class.vector.9 }
%class.vector.9 = type { ptr }
%class.vector.10 = type { ptr }
%class.indexed_uint_set = type { i32, %class.svector.11, %class.svector.11 }
%class.random_gen = type { i32 }
%class.u_map = type { %class.map }
%class.map = type { %class.table2map }
%class.table2map = type { %class.core_hashtable }
%class.core_hashtable = type <{ ptr, i32, i32, i32, [4 x i8] }>
%class.stopwatch = type <{ %"class.std::chrono::time_point", %"class.std::chrono::duration", i8, [7 x i8] }>
%"class.std::chrono::time_point" = type { %"class.std::chrono::duration" }
%"class.std::chrono::duration" = type { i64 }
%class.scoped_ptr = type { ptr }
%"class.std::function" = type { %"class.std::_Function_base", ptr }
%"class.std::_Function_base" = type { %"union.std::_Any_data", ptr }
%"union.std::_Any_data" = type { %"union.std::_Nocopy_types" }
%"union.std::_Nocopy_types" = type { { i64, i64 } }
%class.tracked_uint_set = type { %class.svector.13, %class.svector.11 }
%class.svector.13 = type { %class.vector.14 }
%class.vector.14 = type { ptr }
%class.svector.11 = type { %class.vector.12 }
%class.vector.12 = type { ptr }

; Function Attrs: mustprogress nounwind uwtable
define linkonce_odr hidden noundef i32 @_ZN10random_genclEv(ptr noundef nonnull align 4 dereferenceable(4) %0) #4 comdat align 2 {
  %2 = alloca ptr, align 8
  store ptr %0, ptr %2, align 8, !tbaa !152
  %3 = load ptr, ptr %2, align 8
  %4 = getelementptr inbounds nuw %class.random_gen, ptr %3, i32 0, i32 0
  %5 = load i32, ptr %4, align 4, !tbaa !164
  %6 = zext i32 %5 to i64
  %7 = mul nsw i64 %6, 214013
  %8 = add nsw i64 %7, 2531011
  %9 = trunc i64 %8 to i32
  %10 = getelementptr inbounds nuw %class.random_gen, ptr %3, i32 0, i32 0
  store i32 %9, ptr %10, align 4, !tbaa !164
  %11 = lshr i32 %9, 16
  %12 = and i32 %11, 32767
  ret i32 %12
}

; Function Attrs: mustprogress nounwind uwtable
define linkonce_odr hidden noundef i32 @_ZNK16indexed_uint_set4sizeEv(ptr noundef nonnull align 8 dereferenceable(24) %0) #4 comdat align 2 {
  %2 = alloca ptr, align 8
  store ptr %0, ptr %2, align 8, !tbaa !21
  %3 = load ptr, ptr %2, align 8
  %4 = getelementptr inbounds nuw %class.indexed_uint_set, ptr %3, i32 0, i32 0
  %5 = load i32, ptr %4, align 8, !tbaa !123
  ret i32 %5
}

; Function Attrs: mustprogress uwtable
define linkonce_odr hidden noundef i32 @_ZN10random_genclEj(ptr noundef nonnull align 4 dereferenceable(4) %0, i32 noundef %1) #6 comdat align 2 {
  %3 = alloca ptr, align 8
  %4 = alloca i32, align 4
  %5 = alloca i32, align 4
  store ptr %0, ptr %3, align 8, !tbaa !152
  store i32 %1, ptr %4, align 4, !tbaa !37
  %6 = load ptr, ptr %3, align 8
  call void @llvm.lifetime.start.p0(i64 4, ptr %5) #3
  %7 = call noundef i32 @_ZN10random_genclEv(ptr noundef nonnull align 4 dereferenceable(4) %6)
  store i32 %7, ptr %5, align 4, !tbaa !37
  %8 = load i32, ptr %5, align 4, !tbaa !37
  %9 = load i32, ptr %4, align 4, !tbaa !37
  %10 = urem i32 %8, %9
  call void @llvm.lifetime.end.p0(i64 4, ptr %5) #3
  ret i32 %10
}

; Function Attrs: mustprogress uwtable
define hidden noundef zeroext i1 @_ZN3sat4ddfw10apply_flipEjd(ptr noundef nonnull align 8 dereferenceable(434) %0, i32 noundef %1, double noundef %2) #6 align 2 {
  %4 = alloca i1, align 1
  %5 = alloca ptr, align 8
  %6 = alloca i32, align 4
  %7 = alloca double, align 8
  store ptr %0, ptr %5, align 8, !tbaa !3
  store i32 %1, ptr %6, align 4, !tbaa !37
  store double %2, ptr %7, align 8, !tbaa !113
  %8 = load ptr, ptr %5, align 8
  %9 = load i32, ptr %6, align 4, !tbaa !37
  %10 = icmp eq i32 %9, 2147483647
  br i1 %10, label %11, label %12

11:                                               ; preds = %3
  store i1 false, ptr %4, align 1
  br label %35

12:                                               ; preds = %3
  %13 = load double, ptr %7, align 8, !tbaa !113
  %14 = fcmp ogt double %13, 0.000000e+00
  br i1 %14, label %25, label %15

15:                                               ; preds = %12
  %16 = load double, ptr %7, align 8, !tbaa !113
  %17 = fcmp oeq double %16, 0.000000e+00
  br i1 %17, label %18, label %34

18:                                               ; preds = %15
  %19 = getelementptr inbounds nuw %"class.sat::ddfw", ptr %8, i32 0, i32 19
  %20 = call noundef i32 @_ZN10random_genclEj(ptr noundef nonnull align 4 dereferenceable(4) %19, i32 noundef 100)
  %21 = getelementptr inbounds nuw %"class.sat::ddfw", ptr %8, i32 0, i32 0
  %22 = getelementptr inbounds nuw %"struct.sat::ddfw::config", ptr %21, i32 0, i32 0
  %23 = load i32, ptr %22, align 8, !tbaa !151
  %24 = icmp ule i32 %20, %23
  br i1 %24, label %25, label %34

25:                                               ; preds = %18, %12
  %26 = load i32, ptr %6, align 4, !tbaa !37
  call void @_ZN3sat4ddfw4flipEj(ptr noundef nonnull align 8 dereferenceable(434) %8, i32 noundef %26)
  %27 = getelementptr inbounds nuw %"class.sat::ddfw", ptr %8, i32 0, i32 17
  %28 = call noundef i32 @_ZNK16indexed_uint_set4sizeEv(ptr noundef nonnull align 8 dereferenceable(24) %27)
  %29 = getelementptr inbounds nuw %"class.sat::ddfw", ptr %8, i32 0, i32 32
  %30 = load i32, ptr %29, align 4, !tbaa !41
  %31 = icmp ule i32 %28, %30
  br i1 %31, label %32, label %33

32:                                               ; preds = %25
  call void @_ZN3sat4ddfw16save_best_valuesEv(ptr noundef nonnull align 8 dereferenceable(434) %8)
  br label %33

33:                                               ; preds = %32, %25
  store i1 true, ptr %4, align 1
  br label %35

34:                                               ; preds = %18, %15
  store i1 false, ptr %4, align 1
  br label %35

35:                                               ; preds = %34, %33, %11
  %36 = load i1, ptr %4, align 1
  ret i1 %36
}