; Function Attrs: mustprogress uwtable
define hidden noundef zeroext i1 @_ZN3sat4ddfw10apply_flipEjd(ptr noundef nonnull align 8 dereferenceable(434) %0, i32 noundef %1, double noundef %2) local_unnamed_addr #4 align 2 {
  %4 = icmp eq i32 %1, 2147483647
  br i1 %4, label %24, label %5

5:                                                ; preds = %3
  %6 = fcmp ogt double %2, 0.000000e+00
  br i1 %6, label %18, label %7

7:                                                ; preds = %5
  %8 = fcmp oeq double %2, 0.000000e+00
  br i1 %8, label %9, label %24

9:                                                ; preds = %7
  %10 = getelementptr inbounds nuw i8, ptr %0, i64 216
  %11 = load i32, ptr %10, align 8, !tbaa !87
  %12 = mul i32 %11, 214013
  %13 = add i32 %12, 2531011
  store i32 %13, ptr %10, align 8, !tbaa !87
  %14 = lshr i32 %13, 16
  %15 = trunc nuw i32 %14 to i16
  %.lhs.trunc = and i16 %15, 32767
  %16 = urem i16 %.lhs.trunc, 100
  %.zext = zext nneg i16 %16 to i32
  %17 = load i32, ptr %0, align 8, !tbaa !104
  %.not = icmp ult i32 %17, %.zext
  br i1 %.not, label %24, label %18

18:                                               ; preds = %9, %5
  tail call void @_ZN3sat4ddfw4flipEj(ptr noundef nonnull align 8 dereferenceable(434) %0, i32 noundef %1)
  %19 = getelementptr inbounds nuw i8, ptr %0, i64 168
  %20 = load i32, ptr %19, align 8, !tbaa !97
  %21 = getelementptr inbounds nuw i8, ptr %0, i64 292
  %22 = load i32, ptr %21, align 4, !tbaa !52
  %.not7 = icmp ugt i32 %20, %22
  br i1 %.not7, label %24, label %23

23:                                               ; preds = %18
  tail call void @_ZN3sat4ddfw16save_best_valuesEv(ptr noundef nonnull align 8 dereferenceable(434) %0)
  br label %24

24:                                               ; preds = %7, %9, %18, %23, %3
  %.0 = phi i1 [ false, %3 ], [ true, %23 ], [ true, %18 ], [ false, %9 ], [ false, %7 ]
  ret i1 %.0
}